; Function Attrs: mustprogress uwtable
define void @_ZN8facebook5velox6memory14MemoryPoolImpl13recordFreeDbgERKNS1_10AllocationE(ptr noundef nonnull align 8 dereferenceable(480) %this, ptr nocapture noundef nonnull readonly align 8 dereferenceable(36) %allocation) local_unnamed_addr #0 align 2 {
entry:
  %debugEnabled_ = getelementptr inbounds i8, ptr %this, i64 91
  %0 = load i8, ptr %debugEnabled_, align 1
  %1 = and i8 %0, 1
  %tobool.not = icmp eq i8 %1, 0
  br i1 %tobool.not, label %if.then, label %if.end

if.then:                                          ; preds = %entry
  tail call void @llvm.trap()
  unreachable

if.end:                                           ; preds = %entry
  %call = tail call noundef zeroext i1 @_ZN8facebook5velox6memory14MemoryPoolImpl13needRecordDbgEb(ptr noundef nonnull align 8 dereferenceable(480) %this, i1 zeroext poison)
  br i1 %call, label %lor.lhs.false, label %return

lor.lhs.false:                                    ; preds = %if.end
  %numPages_.i.i = getelementptr inbounds i8, ptr %allocation, i64 32
  %2 = load i32, ptr %numPages_.i.i, align 8
  %runs_.i.i = getelementptr inbounds i8, ptr %allocation, i64 8
  %3 = load ptr, ptr %runs_.i.i, align 8
  %_M_finish.i.i.i = getelementptr inbounds i8, ptr %allocation, i64 16
  %4 = load ptr, ptr %_M_finish.i.i.i, align 8
  %cmp.i.i.i = icmp eq ptr %3, %4
  %5 = icmp eq i32 %2, 0
  %lnot.i.i = xor i1 %5, %cmp.i.i.i
  br i1 %lnot.i.i, label %if.then.i.i, label %if.end.i.i

if.then.i.i:                                      ; preds = %lor.lhs.false
  tail call void @llvm.trap()
  unreachable

if.end.i.i:                                       ; preds = %lor.lhs.false
  %6 = load ptr, ptr %allocation, align 8
  %cmp7.i.i = icmp ne ptr %6, null
  %lnot8.i.i = select i1 %5, i1 %cmp7.i.i, i1 false
  br i1 %lnot8.i.i, label %if.then10.i.i, label %_ZNK8facebook5velox6memory10Allocation5emptyEv.exit

if.then10.i.i:                                    ; preds = %if.end.i.i
  tail call void @llvm.trap()
  unreachable

_ZNK8facebook5velox6memory10Allocation5emptyEv.exit: ; preds = %if.end.i.i
  br i1 %5, label %return, label %if.end4

if.end4:                                          ; preds = %_ZNK8facebook5velox6memory10Allocation5emptyEv.exit
  %retval.sroa.0.0.copyload.i = load i64, ptr %3, align 8
  %and.i = and i64 %retval.sroa.0.0.copyload.i, 281474976710655
  %7 = inttoptr i64 %and.i to ptr
  %conv.i = sext i32 %2 to i64
  %mul.i = shl nsw i64 %conv.i, 12
  tail call void @_ZN8facebook5velox6memory14MemoryPoolImpl13recordFreeDbgEPKvm(ptr noundef nonnull align 8 dereferenceable(480) %this, ptr noundef %7, i64 noundef %mul.i)
  br label %return

return:                                           ; preds = %if.end, %_ZNK8facebook5velox6memory10Allocation5emptyEv.exit, %if.end4
  ret void
}